; ModuleID = '37/467.c'
source_filename = "37/467.c"
target datalayout = "e-m:e-p270:32:32-p271:32:32-p272:64:64-i64:64-f80:128-n8:16:32:64-S128"
target triple = "x86_64-pc-linux-gnu"

@.str = private unnamed_addr constant [3 x i8] c"%d\00", align 1
@.str.1 = private unnamed_addr constant [4 x i8] c"%c\0A\00", align 1
@.str.2 = private unnamed_addr constant [4 x i8] c"no\0A\00", align 1

; Function Attrs: noinline nounwind uwtable
define dso_local i32 @main() #0 {
  %1 = alloca i32, align 4
  %2 = alloca i8**, align 8
  %3 = alloca i8*, align 8
  %4 = alloca i8*, align 8
  %5 = alloca i32, align 4
  %6 = alloca i32, align 4
  %7 = alloca i32, align 4
  store i32 0, i32* %1, align 4
  store i32 0, i32* %7, align 4
  %8 = call i32 (i8*, ...) @__isoc99_scanf(i8* getelementptr inbounds ([3 x i8], [3 x i8]* @.str, i64 0, i64 0), i32* %5)
  %9 = load i32, i32* %5, align 4
  %10 = sext i32 %9 to i64
  %11 = mul i64 %10, 8
  %12 = call noalias i8* @malloc(i64 %11) #3
  %13 = bitcast i8* %12 to i8**
  store i8** %13, i8*** %2, align 8
  store i32 0, i32* %6, align 4
  br label %14

14:                                               ; preds = %30, %0
  %15 = load i32, i32* %6, align 4
  %16 = load i32, i32* %5, align 4
  %17 = icmp sle i32 %15, %16
  br i1 %17, label %18, label %33

18:                                               ; preds = %14
  %19 = call noalias i8* @malloc(i64 10000) #3
  %20 = load i8**, i8*** %2, align 8
  %21 = load i32, i32* %6, align 4
  %22 = sext i32 %21 to i64
  %23 = getelementptr inbounds i8*, i8** %20, i64 %22
  store i8* %19, i8** %23, align 8
  %24 = load i8**, i8*** %2, align 8
  %25 = load i32, i32* %6, align 4
  %26 = sext i32 %25 to i64
  %27 = getelementptr inbounds i8*, i8** %24, i64 %26
  %28 = load i8*, i8** %27, align 8
  %29 = call i32 (i8*, ...) bitcast (i32 (...)* @gets to i32 (i8*, ...)*)(i8* %28)
  br label %30

30:                                               ; preds = %18
  %31 = load i32, i32* %6, align 4
  %32 = add nsw i32 %31, 1
  store i32 %32, i32* %6, align 4
  br label %14

33:                                               ; preds = %14
  store i32 1, i32* %6, align 4
  br label %34

34:                                               ; preds = %81, %33
  %35 = load i32, i32* %6, align 4
  %36 = load i32, i32* %5, align 4
  %37 = icmp sle i32 %35, %36
  br i1 %37, label %38, label %84

38:                                               ; preds = %34
  %39 = load i8**, i8*** %2, align 8
  %40 = load i32, i32* %6, align 4
  %41 = sext i32 %40 to i64
  %42 = getelementptr inbounds i8*, i8** %39, i64 %41
  %43 = load i8*, i8** %42, align 8
  store i8* %43, i8** %3, align 8
  br label %44

44:                                               ; preds = %77, %38
  %45 = load i8*, i8** %3, align 8
  %46 = load i8, i8* %45, align 1
  %47 = sext i8 %46 to i32
  %48 = icmp ne i32 %47, 0
  br i1 %48, label %49, label %80

49:                                               ; preds = %44
  %50 = load i8*, i8** %3, align 8
  %51 = getelementptr inbounds i8, i8* %50, i64 1
  store i8* %51, i8** %4, align 8
  br label %52

52:                                               ; preds = %68, %49
  %53 = load i8*, i8** %4, align 8
  %54 = load i8, i8* %53, align 1
  %55 = sext i8 %54 to i32
  %56 = icmp ne i32 %55, 0
  br i1 %56, label %57, label %71

57:                                               ; preds = %52
  %58 = load i8*, i8** %4, align 8
  %59 = load i8, i8* %58, align 1
  %60 = sext i8 %59 to i32
  %61 = load i8*, i8** %3, align 8
  %62 = load i8, i8* %61, align 1
  %63 = sext i8 %62 to i32
  %64 = icmp eq i32 %60, %63
  br i1 %64, label %65, label %67

65:                                               ; preds = %57
  %66 = load i8*, i8** %4, align 8
  store i8 48, i8* %66, align 1
  store i32 1, i32* %7, align 4
  br label %67

67:                                               ; preds = %65, %57
  br label %68

68:                                               ; preds = %67
  %69 = load i8*, i8** %4, align 8
  %70 = getelementptr inbounds i8, i8* %69, i32 1
  store i8* %70, i8** %4, align 8
  br label %52

71:                                               ; preds = %52
  %72 = load i32, i32* %7, align 4
  %73 = icmp eq i32 %72, 1
  br i1 %73, label %74, label %76

74:                                               ; preds = %71
  %75 = load i8*, i8** %3, align 8
  store i8 48, i8* %75, align 1
  br label %76

76:                                               ; preds = %74, %71
  store i32 0, i32* %7, align 4
  br label %77

77:                                               ; preds = %76
  %78 = load i8*, i8** %3, align 8
  %79 = getelementptr inbounds i8, i8* %78, i32 1
  store i8* %79, i8** %3, align 8
  br label %44

80:                                               ; preds = %44
  br label %81

81:                                               ; preds = %80
  %82 = load i32, i32* %6, align 4
  %83 = add nsw i32 %82, 1
  store i32 %83, i32* %6, align 4
  br label %34

84:                                               ; preds = %34
  store i32 1, i32* %6, align 4
  br label %85

85:                                               ; preds = %122, %84
  %86 = load i32, i32* %6, align 4
  %87 = load i32, i32* %5, align 4
  %88 = icmp sle i32 %86, %87
  br i1 %88, label %89, label %125

89:                                               ; preds = %85
  %90 = load i8**, i8*** %2, align 8
  %91 = load i32, i32* %6, align 4
  %92 = sext i32 %91 to i64
  %93 = getelementptr inbounds i8*, i8** %90, i64 %92
  %94 = load i8*, i8** %93, align 8
  store i8* %94, i8** %3, align 8
  br label %95

95:                                               ; preds = %111, %89
  %96 = load i8*, i8** %3, align 8
  %97 = load i8, i8* %96, align 1
  %98 = sext i8 %97 to i32
  %99 = icmp ne i32 %98, 0
  br i1 %99, label %100, label %114

100:                                              ; preds = %95
  %101 = load i8*, i8** %3, align 8
  %102 = load i8, i8* %101, align 1
  %103 = sext i8 %102 to i32
  %104 = icmp ne i32 %103, 48
  br i1 %104, label %105, label %110

105:                                              ; preds = %100
  %106 = load i8*, i8** %3, align 8
  %107 = load i8, i8* %106, align 1
  %108 = sext i8 %107 to i32
  %109 = call i32 (i8*, ...) @printf(i8* getelementptr inbounds ([4 x i8], [4 x i8]* @.str.1, i64 0, i64 0), i32 %108)
  br label %114

110:                                              ; preds = %100
  br label %111

111:                                              ; preds = %110
  %112 = load i8*, i8** %3, align 8
  %113 = getelementptr inbounds i8, i8* %112, i32 1
  store i8* %113, i8** %3, align 8
  br label %95

114:                                              ; preds = %105, %95
  %115 = load i8*, i8** %3, align 8
  %116 = load i8, i8* %115, align 1
  %117 = sext i8 %116 to i32
  %118 = icmp eq i32 %117, 0
  br i1 %118, label %119, label %121

119:                                              ; preds = %114
  %120 = call i32 (i8*, ...) @printf(i8* getelementptr inbounds ([4 x i8], [4 x i8]* @.str.2, i64 0, i64 0))
  br label %121

121:                                              ; preds = %119, %114
  br label %122

122:                                              ; preds = %121
  %123 = load i32, i32* %6, align 4
  %124 = add nsw i32 %123, 1
  store i32 %124, i32* %6, align 4
  br label %85

125:                                              ; preds = %85
  %126 = load i32, i32* %1, align 4
  ret i32 %126
}

declare dso_local i32 @__isoc99_scanf(i8*, ...) #1

; Function Attrs: nounwind
declare dso_local noalias i8* @malloc(i64) #2

declare dso_local i32 @gets(...) #1

declare dso_local i32 @printf(i8*, ...) #1


!llvm.module.flags = !{!0}
!llvm.ident = !{!1}

!0 = !{i32 1, !"wchar_size", i32 4}
!1 = !{!"clang version 10.0.0-4ubuntu1 "}
